; Function Attrs: nofree norecurse nosync nounwind memory(read, inaccessiblemem: none) uwtable
define range(i32 0, 2) i32 @Gia_ManQuantCheckOverlap(ptr noundef readonly captures(none) %0, i32 noundef %1) local_unnamed_addr #7 {
  %3 = getelementptr i8, ptr %0, i64 980
  %.val4 = load i32, ptr %3, align 4, !tbaa !31
  %4 = getelementptr i8, ptr %0, i64 984
  %.val5 = load ptr, ptr %4, align 8, !tbaa !32
  %5 = getelementptr i8, ptr %.val5, i64 8
  %.val5.val = load ptr, ptr %5, align 8, !tbaa !33
  %6 = mul nsw i32 %.val4, %1
  %7 = sext i32 %6 to i64
  %8 = getelementptr inbounds i64, ptr %.val5.val, i64 %7
  %9 = icmp sgt i32 %.val4, 0
  br i1 %9, label %.lr.ph.preheader.i, label %Abc_TtIntersect.exit

.lr.ph.preheader.i:                               ; preds = %2
  %wide.trip.count.i = zext nneg i32 %.val4 to i64
  br label %.lr.ph.i

10:                                               ; preds = %.lr.ph.i
  %indvars.iv.next.i = add nuw nsw i64 %indvars.iv.i, 1
  %exitcond.not.i = icmp eq i64 %indvars.iv.next.i, %wide.trip.count.i
  br i1 %exitcond.not.i, label %Abc_TtIntersect.exit, label %.lr.ph.i, !llvm.loop !49

.lr.ph.i:                                         ; preds = %10, %.lr.ph.preheader.i
  %indvars.iv.i = phi i64 [ 0, %.lr.ph.preheader.i ], [ %indvars.iv.next.i, %10 ]
  %11 = getelementptr inbounds nuw i64, ptr %8, i64 %indvars.iv.i
  %12 = load i64, ptr %11, align 8, !tbaa !38
  %13 = getelementptr inbounds nuw i64, ptr %.val5.val, i64 %indvars.iv.i
  %14 = load i64, ptr %13, align 8, !tbaa !38
  %15 = and i64 %14, %12
  %.not.i = icmp eq i64 %15, 0
  br i1 %.not.i, label %10, label %Abc_TtIntersect.exit

Abc_TtIntersect.exit:                             ; preds = %10, %.lr.ph.i, %2
  %.015.i = phi i32 [ 0, %2 ], [ 1, %.lr.ph.i ], [ 0, %10 ]
  ret i32 %.015.i
}